; Function Attrs: mustprogress nofree norecurse nosync nounwind willreturn memory(argmem: write) uwtable
define noundef i64 @_Z14fast_rv32i_luiP11processor_t6insn_tm(ptr nocapture noundef writeonly %0, i64 %1, i64 noundef %2) local_unnamed_addr #3 {
  %4 = lshr i64 %1, 7
  %5 = and i64 %4, 31
  %.not.i = icmp eq i64 %5, 0
  br i1 %.not.i, label %_ZN9regfile_tImLm32ELb1EE5writeEmm.exit, label %6

6:                                                ; preds = %3
  %7 = getelementptr inbounds i8, ptr %0, i64 120
  %8 = shl i64 %1, 32
  %9 = ashr exact i64 %8, 32
  %10 = and i64 %9, -4096
  %11 = getelementptr inbounds [32 x i64], ptr %7, i64 0, i64 %5
  store i64 %10, ptr %11, align 8
  br label %_ZN9regfile_tImLm32ELb1EE5writeEmm.exit

_ZN9regfile_tImLm32ELb1EE5writeEmm.exit:          ; preds = %3, %6
  %12 = shl i64 %2, 32
  %13 = add i64 %12, 17179869184
  %14 = ashr exact i64 %13, 32
  ret i64 %14
}